target datalayout = "e-m:e-p270:32:32-p271:32:32-p272:64:64-i64:64-i128:128-f80:128-n8:16:32:64-S128"
target triple = "x86_64-pc-linux-gnu"

%struct.luaScript = type { i64, ptr, ptr }

; Function Attrs: nounwind uwtable
define internal void @dictLuaScriptDestructor(ptr noundef %0, ptr noundef %1) #0 {
  %3 = alloca ptr, align 8
  %4 = alloca ptr, align 8
  store ptr %0, ptr %3, align 8, !tbaa !9
  store ptr %1, ptr %4, align 8, !tbaa !5
  %5 = load ptr, ptr %4, align 8, !tbaa !5
  %6 = icmp eq ptr %5, null
  br i1 %6, label %7, label %8

7:                                                ; preds = %2
  br label %13

8:                                                ; preds = %2
  %9 = load ptr, ptr %4, align 8, !tbaa !5
  %10 = getelementptr inbounds nuw %struct.luaScript, ptr %9, i32 0, i32 1
  %11 = load ptr, ptr %10, align 8, !tbaa !11
  call void @decrRefCount(ptr noundef %11)
  %12 = load ptr, ptr %4, align 8, !tbaa !5
  call void @zfree(ptr noundef %12)
  br label %13

13:                                               ; preds = %8, %7
  ret void
}