; Function Attrs: nounwind uwtable
define internal void @dictLuaScriptDestructor(ptr readnone captures(none) %0, ptr noundef %1) #0 {
  %3 = icmp eq ptr %1, null
  br i1 %3, label %7, label %4

4:                                                ; preds = %2
  %5 = getelementptr inbounds nuw i8, ptr %1, i64 8
  %6 = load ptr, ptr %5, align 8, !tbaa !5
  tail call void @decrRefCount(ptr noundef %6) #19
  tail call void @zfree(ptr noundef nonnull %1) #19
  br label %7

7:                                                ; preds = %2, %4
  ret void
}